target datalayout = "e-m:e-p270:32:32-p271:32:32-p272:64:64-i64:64-i128:128-f80:128-n8:16:32:64-S128"
target triple = "x86_64-pc-linux-gnu"

%struct._zend_refcounted_h = type { i32, %union.anon }
%union.anon = type { i32 }
%struct._zval_struct = type { %union._zend_value, %union.anon.4, %union.anon.7 }
%union._zend_value = type { i64 }
%union.anon.4 = type { i32 }
%union.anon.7 = type { i32 }
%struct._zend_string = type { %struct._zend_refcounted_h, i64, i64, [1 x i8] }
%struct._php_output_buffer = type { ptr, i64, i64, i32 }
%struct._php_output_handler = type { ptr, i32, i32, i64, %struct._php_output_buffer, ptr, ptr, %union.anon.2 }
%union.anon.2 = type { ptr }

@.str.21 = private unnamed_addr constant [5 x i8] c"name\00", align 1
@.str.22 = private unnamed_addr constant [5 x i8] c"type\00", align 1
@.str.23 = private unnamed_addr constant [6 x i8] c"flags\00", align 1
@.str.24 = private unnamed_addr constant [6 x i8] c"level\00", align 1
@.str.25 = private unnamed_addr constant [11 x i8] c"chunk_size\00", align 1
@.str.26 = private unnamed_addr constant [12 x i8] c"buffer_size\00", align 1
@.str.27 = private unnamed_addr constant [12 x i8] c"buffer_used\00", align 1

; Function Attrs: alwaysinline nounwind uwtable
define internal i32 @zend_gc_addref(ptr noundef %0) #5 {
  %2 = alloca ptr, align 8
  store ptr %0, ptr %2, align 8, !tbaa !95
  br label %3

3:                                                ; preds = %1
  br label %4

4:                                                ; preds = %3
  %5 = load ptr, ptr %2, align 8, !tbaa !95
  %6 = getelementptr inbounds nuw %struct._zend_refcounted_h, ptr %5, i32 0, i32 0
  %7 = load i32, ptr %6, align 4, !tbaa !97
  %8 = add i32 %7, 1
  store i32 %8, ptr %6, align 4, !tbaa !97
  ret i32 %8
}

; Function Attrs: alwaysinline nounwind uwtable
define internal i32 @zval_gc_flags(i32 noundef %0) #5 {
  %2 = alloca i32, align 4
  store i32 %0, ptr %2, align 4, !tbaa !57
  %3 = load i32, ptr %2, align 4, !tbaa !57
  %4 = lshr i32 %3, 0
  %5 = and i32 %4, 1008
  ret i32 %5
}

; Function Attrs: alwaysinline nounwind uwtable
define internal void @add_assoc_long(ptr noundef %0, ptr noundef %1, i64 noundef %2) #5 {
  %4 = alloca ptr, align 8
  %5 = alloca ptr, align 8
  %6 = alloca i64, align 8
  store ptr %0, ptr %4, align 8, !tbaa !10
  store ptr %1, ptr %5, align 8, !tbaa !15
  store i64 %2, ptr %6, align 8, !tbaa !17
  %7 = load ptr, ptr %4, align 8, !tbaa !10
  %8 = load ptr, ptr %5, align 8, !tbaa !15
  %9 = load ptr, ptr %5, align 8, !tbaa !15
  %10 = call i64 @strlen(ptr noundef %9) #18
  %11 = load i64, ptr %6, align 8, !tbaa !17
  call void @add_assoc_long_ex(ptr noundef %7, ptr noundef %8, i64 noundef %10, i64 noundef %11)
  ret void
}

; Function Attrs: alwaysinline nounwind uwtable
define internal void @add_assoc_str(ptr noundef %0, ptr noundef %1, ptr noundef %2) #5 {
  %4 = alloca ptr, align 8
  %5 = alloca ptr, align 8
  %6 = alloca ptr, align 8
  store ptr %0, ptr %4, align 8, !tbaa !10
  store ptr %1, ptr %5, align 8, !tbaa !15
  store ptr %2, ptr %6, align 8, !tbaa !56
  %7 = load ptr, ptr %4, align 8, !tbaa !10
  %8 = load ptr, ptr %5, align 8, !tbaa !15
  %9 = load ptr, ptr %5, align 8, !tbaa !15
  %10 = call i64 @strlen(ptr noundef %9) #18
  %11 = load ptr, ptr %6, align 8, !tbaa !56
  call void @add_assoc_str_ex(ptr noundef %7, ptr noundef %8, i64 noundef %10, ptr noundef %11)
  ret void
}

; Function Attrs: alwaysinline nounwind uwtable
define internal ptr @zend_string_copy(ptr noundef %0) #5 {
  %2 = alloca ptr, align 8
  store ptr %0, ptr %2, align 8, !tbaa !56
  %3 = load ptr, ptr %2, align 8, !tbaa !56
  %4 = getelementptr inbounds nuw %struct._zend_string, ptr %3, i32 0, i32 0
  %5 = getelementptr inbounds nuw %struct._zend_refcounted_h, ptr %4, i32 0, i32 1
  %6 = load i32, ptr %5, align 4, !tbaa !12
  %7 = call i32 @zval_gc_flags(i32 noundef %6)
  %8 = and i32 %7, 64
  %9 = icmp ne i32 %8, 0
  br i1 %9, label %14, label %10

10:                                               ; preds = %1
  %11 = load ptr, ptr %2, align 8, !tbaa !56
  %12 = getelementptr inbounds nuw %struct._zend_string, ptr %11, i32 0, i32 0
  %13 = call i32 @zend_gc_addref(ptr noundef %12)
  br label %14

14:                                               ; preds = %10, %1
  %15 = load ptr, ptr %2, align 8, !tbaa !56
  ret ptr %15
}

; Function Attrs: inlinehint nounwind uwtable
define internal ptr @php_output_handler_status(ptr noundef %0, ptr noundef %1) #1 {
  %3 = alloca ptr, align 8
  %4 = alloca ptr, align 8
  %5 = alloca ptr, align 8
  %6 = alloca ptr, align 8
  store ptr %0, ptr %3, align 8, !tbaa !55
  store ptr %1, ptr %4, align 8, !tbaa !10
  %7 = load ptr, ptr %4, align 8, !tbaa !10
  %8 = icmp ne ptr %7, null
  call void @llvm.assume(i1 %8)
  br label %9

9:                                                ; preds = %2
  call void @llvm.lifetime.start.p0(i64 8, ptr %5) #15
  %10 = call ptr @_zend_new_array_0()
  store ptr %10, ptr %5, align 8, !tbaa !13
  call void @llvm.lifetime.start.p0(i64 8, ptr %6) #15
  %11 = load ptr, ptr %4, align 8, !tbaa !10
  store ptr %11, ptr %6, align 8, !tbaa !10
  %12 = load ptr, ptr %5, align 8, !tbaa !13
  %13 = load ptr, ptr %6, align 8, !tbaa !10
  %14 = getelementptr inbounds nuw %struct._zval_struct, ptr %13, i32 0, i32 0
  store ptr %12, ptr %14, align 8, !tbaa !12
  %15 = load ptr, ptr %6, align 8, !tbaa !10
  %16 = getelementptr inbounds nuw %struct._zval_struct, ptr %15, i32 0, i32 1
  store i32 775, ptr %16, align 8, !tbaa !12
  call void @llvm.lifetime.end.p0(i64 8, ptr %6) #15
  call void @llvm.lifetime.end.p0(i64 8, ptr %5) #15
  br label %17

17:                                               ; preds = %9
  %18 = load ptr, ptr %4, align 8, !tbaa !10
  %19 = load ptr, ptr %3, align 8, !tbaa !55
  %20 = getelementptr inbounds nuw %struct._php_output_handler, ptr %19, i32 0, i32 0
  %21 = load ptr, ptr %20, align 8, !tbaa !82
  %22 = call ptr @zend_string_copy(ptr noundef %21)
  call void @add_assoc_str(ptr noundef %18, ptr noundef @.str.21, ptr noundef %22)
  %23 = load ptr, ptr %4, align 8, !tbaa !10
  %24 = load ptr, ptr %3, align 8, !tbaa !55
  %25 = getelementptr inbounds nuw %struct._php_output_handler, ptr %24, i32 0, i32 1
  %26 = load i32, ptr %25, align 8, !tbaa !65
  %27 = and i32 %26, 15
  %28 = sext i32 %27 to i64
  call void @add_assoc_long(ptr noundef %23, ptr noundef @.str.22, i64 noundef %28)
  %29 = load ptr, ptr %4, align 8, !tbaa !10
  %30 = load ptr, ptr %3, align 8, !tbaa !55
  %31 = getelementptr inbounds nuw %struct._php_output_handler, ptr %30, i32 0, i32 1
  %32 = load i32, ptr %31, align 8, !tbaa !65
  %33 = sext i32 %32 to i64
  call void @add_assoc_long(ptr noundef %29, ptr noundef @.str.23, i64 noundef %33)
  %34 = load ptr, ptr %4, align 8, !tbaa !10
  %35 = load ptr, ptr %3, align 8, !tbaa !55
  %36 = getelementptr inbounds nuw %struct._php_output_handler, ptr %35, i32 0, i32 2
  %37 = load i32, ptr %36, align 4, !tbaa !83
  %38 = sext i32 %37 to i64
  call void @add_assoc_long(ptr noundef %34, ptr noundef @.str.24, i64 noundef %38)
  %39 = load ptr, ptr %4, align 8, !tbaa !10
  %40 = load ptr, ptr %3, align 8, !tbaa !55
  %41 = getelementptr inbounds nuw %struct._php_output_handler, ptr %40, i32 0, i32 3
  %42 = load i64, ptr %41, align 8, !tbaa !94
  call void @add_assoc_long(ptr noundef %39, ptr noundef @.str.25, i64 noundef %42)
  %43 = load ptr, ptr %4, align 8, !tbaa !10
  %44 = load ptr, ptr %3, align 8, !tbaa !55
  %45 = getelementptr inbounds nuw %struct._php_output_handler, ptr %44, i32 0, i32 4
  %46 = getelementptr inbounds nuw %struct._php_output_buffer, ptr %45, i32 0, i32 1
  %47 = load i64, ptr %46, align 8, !tbaa !81
  call void @add_assoc_long(ptr noundef %43, ptr noundef @.str.26, i64 noundef %47)
  %48 = load ptr, ptr %4, align 8, !tbaa !10
  %49 = load ptr, ptr %3, align 8, !tbaa !55
  %50 = getelementptr inbounds nuw %struct._php_output_handler, ptr %49, i32 0, i32 4
  %51 = getelementptr inbounds nuw %struct._php_output_buffer, ptr %50, i32 0, i32 2
  %52 = load i64, ptr %51, align 8, !tbaa !73
  call void @add_assoc_long(ptr noundef %48, ptr noundef @.str.27, i64 noundef %52)
  %53 = load ptr, ptr %4, align 8, !tbaa !10
  ret ptr %53
}