; Function Attrs: inlinehint nounwind uwtable
define internal fastcc nonnull ptr @php_output_handler_status(ptr noundef readonly captures(none) %0, ptr noundef returned %1) unnamed_addr #8 {
  %3 = icmp ne ptr %1, null
  tail call void @llvm.assume(i1 %3)
  %4 = tail call ptr @_zend_new_array_0() #22
  store ptr %4, ptr %1, align 8, !tbaa !8
  %5 = getelementptr inbounds nuw i8, ptr %1, i64 8
  store i32 775, ptr %5, align 8, !tbaa !8
  %6 = load ptr, ptr %0, align 8, !tbaa !78
  %7 = getelementptr inbounds nuw i8, ptr %6, i64 4
  %8 = load i32, ptr %7, align 4, !tbaa !8
  %9 = and i32 %8, 64
  %.not.i = icmp eq i32 %9, 0
  br i1 %.not.i, label %10, label %zend_string_copy.exit

10:                                               ; preds = %2
  %11 = load i32, ptr %6, align 4, !tbaa !20
  %12 = add i32 %11, 1
  store i32 %12, ptr %6, align 4, !tbaa !20
  br label %zend_string_copy.exit

zend_string_copy.exit:                            ; preds = %2, %10
  tail call void @add_assoc_str_ex(ptr noundef nonnull %1, ptr noundef nonnull @.str.21, i64 noundef 4, ptr noundef nonnull %6) #22
  %13 = getelementptr inbounds nuw i8, ptr %0, i64 8
  %14 = load i32, ptr %13, align 8, !tbaa !54
  %15 = and i32 %14, 15
  %16 = zext nneg i32 %15 to i64
  tail call void @add_assoc_long_ex(ptr noundef nonnull %1, ptr noundef nonnull @.str.22, i64 noundef 4, i64 noundef %16) #22
  %17 = load i32, ptr %13, align 8, !tbaa !54
  %18 = sext i32 %17 to i64
  tail call void @add_assoc_long_ex(ptr noundef nonnull %1, ptr noundef nonnull @.str.23, i64 noundef 5, i64 noundef %18) #22
  %19 = getelementptr inbounds nuw i8, ptr %0, i64 12
  %20 = load i32, ptr %19, align 4, !tbaa !79
  %21 = sext i32 %20 to i64
  tail call void @add_assoc_long_ex(ptr noundef nonnull %1, ptr noundef nonnull @.str.24, i64 noundef 5, i64 noundef %21) #22
  %22 = getelementptr inbounds nuw i8, ptr %0, i64 16
  %23 = load i64, ptr %22, align 8, !tbaa !66
  tail call void @add_assoc_long_ex(ptr noundef nonnull %1, ptr noundef nonnull @.str.25, i64 noundef 10, i64 noundef %23) #22
  %24 = getelementptr inbounds nuw i8, ptr %0, i64 32
  %25 = load i64, ptr %24, align 8, !tbaa !63
  tail call void @add_assoc_long_ex(ptr noundef nonnull %1, ptr noundef nonnull @.str.26, i64 noundef 11, i64 noundef %25) #22
  %26 = getelementptr inbounds nuw i8, ptr %0, i64 40
  %27 = load i64, ptr %26, align 8, !tbaa !64
  tail call void @add_assoc_long_ex(ptr noundef nonnull %1, ptr noundef nonnull @.str.27, i64 noundef 11, i64 noundef %27) #22
  ret ptr %1
}